target datalayout = "e-m:e-p270:32:32-p271:32:32-p272:64:64-i64:64-i128:128-f80:128-n8:16:32:64-S128"
target triple = "x86_64-pc-linux-gnu"

%struct._SPI_connection = type { i64, ptr, i32, %struct.slist_head, ptr, ptr, ptr, i32, ptr, i8, i8, i64, ptr, i32 }
%struct.slist_head = type { %struct.slist_node }
%struct.slist_node = type { ptr }
%struct.RelationData = type { %struct.RelFileLocator, ptr, i32, i32, i8, i8, i8, i8, i8, i32, i32, i32, i32, ptr, ptr, i32, %struct.LockInfoData, ptr, ptr, ptr, ptr, ptr, i8, ptr, ptr, ptr, ptr, ptr, ptr, i32, ptr, i8, ptr, ptr, i32, i8, i32, ptr, i8, ptr, ptr, ptr, ptr, ptr, ptr, ptr, i32, ptr, ptr, ptr, ptr, ptr, ptr, ptr, ptr, ptr, ptr, ptr, ptr, ptr, ptr, ptr, ptr, ptr, ptr, ptr, i32, i8, ptr }
%struct.RelFileLocator = type { i32, i32, i32 }
%struct.LockInfoData = type { %struct.LockRelId }
%struct.LockRelId = type { i32, i32 }
%struct.EphemeralNamedRelationData = type { %struct.EphemeralNamedRelationMetadataData, ptr }
%struct.EphemeralNamedRelationMetadataData = type { ptr, i32, ptr, i32, double }
%struct.TriggerData = type { i32, i32, ptr, ptr, ptr, ptr, ptr, ptr, ptr, ptr, ptr }
%struct.Trigger = type { i32, ptr, i32, i16, i8, i8, i8, i32, i32, i32, i8, i8, i16, i16, ptr, ptr, ptr, ptr, ptr }

@_SPI_current = internal global ptr null, align 8
@CurrentMemoryContext = external global ptr, align 8

; Function Attrs: inlinehint nounwind uwtable
define internal ptr @MemoryContextSwitchTo(ptr noundef %0) #4 {
  %2 = alloca ptr, align 8
  %3 = alloca ptr, align 8
  store ptr %0, ptr %2, align 8
  call void @llvm.lifetime.start.p0(i64 8, ptr %3) #9
  %4 = load ptr, ptr @CurrentMemoryContext, align 8
  store ptr %4, ptr %3, align 8
  %5 = load ptr, ptr %2, align 8
  store ptr %5, ptr @CurrentMemoryContext, align 8
  %6 = load ptr, ptr %3, align 8
  call void @llvm.lifetime.end.p0(i64 8, ptr %3) #9
  ret ptr %6
}

; Function Attrs: nounwind uwtable
define internal ptr @_SPI_procmem() #0 {
  %1 = load ptr, ptr @_SPI_current, align 8
  %2 = getelementptr inbounds nuw %struct._SPI_connection, ptr %1, i32 0, i32 4
  %3 = load ptr, ptr %2, align 8
  %4 = call ptr @MemoryContextSwitchTo(ptr noundef %3)
  ret ptr %4
}

; Function Attrs: nounwind uwtable
define internal ptr @_SPI_execmem() #0 {
  %1 = load ptr, ptr @_SPI_current, align 8
  %2 = getelementptr inbounds nuw %struct._SPI_connection, ptr %1, i32 0, i32 5
  %3 = load ptr, ptr %2, align 8
  %4 = call ptr @MemoryContextSwitchTo(ptr noundef %3)
  ret ptr %4
}

; Function Attrs: nounwind uwtable
define internal i32 @_SPI_end_call(i1 noundef zeroext %0) #0 {
  %2 = alloca i8, align 1
  %3 = zext i1 %0 to i8
  store i8 %3, ptr %2, align 1
  %4 = load i8, ptr %2, align 1, !range !4, !noundef !5
  %5 = trunc i8 %4 to i1
  br i1 %5, label %6, label %13

6:                                                ; preds = %1
  %7 = call ptr @_SPI_procmem()
  %8 = load ptr, ptr @_SPI_current, align 8
  %9 = getelementptr inbounds nuw %struct._SPI_connection, ptr %8, i32 0, i32 2
  store i32 0, ptr %9, align 8
  %10 = load ptr, ptr @_SPI_current, align 8
  %11 = getelementptr inbounds nuw %struct._SPI_connection, ptr %10, i32 0, i32 5
  %12 = load ptr, ptr %11, align 8
  call void @MemoryContextReset(ptr noundef %12)
  br label %13

13:                                               ; preds = %6, %1
  ret i32 0
}

; Function Attrs: nounwind uwtable
define internal ptr @_SPI_find_ENR_by_name(ptr noundef %0) #0 {
  %2 = alloca ptr, align 8
  %3 = alloca ptr, align 8
  store ptr %0, ptr %3, align 8
  %4 = load ptr, ptr @_SPI_current, align 8
  %5 = getelementptr inbounds nuw %struct._SPI_connection, ptr %4, i32 0, i32 8
  %6 = load ptr, ptr %5, align 8
  %7 = icmp eq ptr %6, null
  br i1 %7, label %8, label %9

8:                                                ; preds = %1
  store ptr null, ptr %2, align 8
  br label %15

9:                                                ; preds = %1
  %10 = load ptr, ptr @_SPI_current, align 8
  %11 = getelementptr inbounds nuw %struct._SPI_connection, ptr %10, i32 0, i32 8
  %12 = load ptr, ptr %11, align 8
  %13 = load ptr, ptr %3, align 8
  %14 = call ptr @get_ENR(ptr noundef %12, ptr noundef %13)
  store ptr %14, ptr %2, align 8
  br label %15

15:                                               ; preds = %9, %8
  %16 = load ptr, ptr %2, align 8
  ret ptr %16
}

; Function Attrs: nounwind uwtable
define internal i32 @_SPI_begin_call(i1 noundef zeroext %0) #0 {
  %2 = alloca i32, align 4
  %3 = alloca i8, align 1
  %4 = zext i1 %0 to i8
  store i8 %4, ptr %3, align 1
  %5 = load ptr, ptr @_SPI_current, align 8
  %6 = icmp eq ptr %5, null
  br i1 %6, label %7, label %8

7:                                                ; preds = %1
  store i32 -4, ptr %2, align 4
  br label %17

8:                                                ; preds = %1
  %9 = load i8, ptr %3, align 1, !range !4, !noundef !5
  %10 = trunc i8 %9 to i1
  br i1 %10, label %11, label %16

11:                                               ; preds = %8
  %12 = call i32 @GetCurrentSubTransactionId()
  %13 = load ptr, ptr @_SPI_current, align 8
  %14 = getelementptr inbounds nuw %struct._SPI_connection, ptr %13, i32 0, i32 2
  store i32 %12, ptr %14, align 8
  %15 = call ptr @_SPI_execmem()
  br label %16

16:                                               ; preds = %11, %8
  store i32 0, ptr %2, align 4
  br label %17

17:                                               ; preds = %16, %7
  %18 = load i32, ptr %2, align 4
  ret i32 %18
}

; Function Attrs: nounwind uwtable
define dso_local i32 @SPI_register_relation(ptr noundef %0) #0 {
  %2 = alloca i32, align 4
  %3 = alloca ptr, align 8
  %4 = alloca ptr, align 8
  %5 = alloca i32, align 4
  %6 = alloca i32, align 4
  store ptr %0, ptr %3, align 8
  call void @llvm.lifetime.start.p0(i64 8, ptr %4) #9
  call void @llvm.lifetime.start.p0(i64 4, ptr %5) #9
  %7 = load ptr, ptr %3, align 8
  %8 = icmp eq ptr %7, null
  br i1 %8, label %15, label %9

9:                                                ; preds = %1
  %10 = load ptr, ptr %3, align 8
  %11 = getelementptr inbounds nuw %struct.EphemeralNamedRelationData, ptr %10, i32 0, i32 0
  %12 = getelementptr inbounds nuw %struct.EphemeralNamedRelationMetadataData, ptr %11, i32 0, i32 0
  %13 = load ptr, ptr %12, align 8
  %14 = icmp eq ptr %13, null
  br i1 %14, label %15, label %16

15:                                               ; preds = %9, %1
  store i32 -6, ptr %2, align 4
  store i32 1, ptr %6, align 4
  br label %48

16:                                               ; preds = %9
  %17 = call i32 @_SPI_begin_call(i1 noundef zeroext false)
  store i32 %17, ptr %5, align 4
  %18 = load i32, ptr %5, align 4
  %19 = icmp slt i32 %18, 0
  br i1 %19, label %20, label %22

20:                                               ; preds = %16
  %21 = load i32, ptr %5, align 4
  store i32 %21, ptr %2, align 4
  store i32 1, ptr %6, align 4
  br label %48

22:                                               ; preds = %16
  %23 = load ptr, ptr %3, align 8
  %24 = getelementptr inbounds nuw %struct.EphemeralNamedRelationData, ptr %23, i32 0, i32 0
  %25 = getelementptr inbounds nuw %struct.EphemeralNamedRelationMetadataData, ptr %24, i32 0, i32 0
  %26 = load ptr, ptr %25, align 8
  %27 = call ptr @_SPI_find_ENR_by_name(ptr noundef %26)
  store ptr %27, ptr %4, align 8
  %28 = load ptr, ptr %4, align 8
  %29 = icmp ne ptr %28, null
  br i1 %29, label %30, label %31

30:                                               ; preds = %22
  store i32 -12, ptr %5, align 4
  br label %45

31:                                               ; preds = %22
  %32 = load ptr, ptr @_SPI_current, align 8
  %33 = getelementptr inbounds nuw %struct._SPI_connection, ptr %32, i32 0, i32 8
  %34 = load ptr, ptr %33, align 8
  %35 = icmp eq ptr %34, null
  br i1 %35, label %36, label %40

36:                                               ; preds = %31
  %37 = call ptr @create_queryEnv()
  %38 = load ptr, ptr @_SPI_current, align 8
  %39 = getelementptr inbounds nuw %struct._SPI_connection, ptr %38, i32 0, i32 8
  store ptr %37, ptr %39, align 8
  br label %40

40:                                               ; preds = %36, %31
  %41 = load ptr, ptr @_SPI_current, align 8
  %42 = getelementptr inbounds nuw %struct._SPI_connection, ptr %41, i32 0, i32 8
  %43 = load ptr, ptr %42, align 8
  %44 = load ptr, ptr %3, align 8
  call void @register_ENR(ptr noundef %43, ptr noundef %44)
  store i32 15, ptr %5, align 4
  br label %45

45:                                               ; preds = %40, %30
  %46 = call i32 @_SPI_end_call(i1 noundef zeroext false)
  %47 = load i32, ptr %5, align 4
  store i32 %47, ptr %2, align 4
  store i32 1, ptr %6, align 4
  br label %48

48:                                               ; preds = %45, %20, %15
  call void @llvm.lifetime.end.p0(i64 4, ptr %5) #9
  call void @llvm.lifetime.end.p0(i64 8, ptr %4) #9
  %49 = load i32, ptr %2, align 4
  ret i32 %49
}

; Function Attrs: nounwind uwtable
define dso_local i32 @SPI_register_trigger_data(ptr noundef %0) #0 {
  %2 = alloca i32, align 4
  %3 = alloca ptr, align 8
  %4 = alloca ptr, align 8
  %5 = alloca i32, align 4
  %6 = alloca i32, align 4
  %7 = alloca ptr, align 8
  %8 = alloca i32, align 4
  store ptr %0, ptr %3, align 8
  %9 = load ptr, ptr %3, align 8
  %10 = icmp eq ptr %9, null
  br i1 %10, label %11, label %12

11:                                               ; preds = %1
  store i32 -6, ptr %2, align 4
  br label %117

12:                                               ; preds = %1
  %13 = load ptr, ptr %3, align 8
  %14 = getelementptr inbounds nuw %struct.TriggerData, ptr %13, i32 0, i32 9
  %15 = load ptr, ptr %14, align 8
  %16 = icmp ne ptr %15, null
  br i1 %16, label %17, label %64

17:                                               ; preds = %12
  call void @llvm.lifetime.start.p0(i64 8, ptr %4) #9
  %18 = call ptr @palloc(i64 noundef 48)
  store ptr %18, ptr %4, align 8
  call void @llvm.lifetime.start.p0(i64 4, ptr %5) #9
  %19 = load ptr, ptr %3, align 8
  %20 = getelementptr inbounds nuw %struct.TriggerData, ptr %19, i32 0, i32 5
  %21 = load ptr, ptr %20, align 8
  %22 = getelementptr inbounds nuw %struct.Trigger, ptr %21, i32 0, i32 18
  %23 = load ptr, ptr %22, align 8
  %24 = load ptr, ptr %4, align 8
  %25 = getelementptr inbounds nuw %struct.EphemeralNamedRelationData, ptr %24, i32 0, i32 0
  %26 = getelementptr inbounds nuw %struct.EphemeralNamedRelationMetadataData, ptr %25, i32 0, i32 0
  store ptr %23, ptr %26, align 8
  %27 = load ptr, ptr %3, align 8
  %28 = getelementptr inbounds nuw %struct.TriggerData, ptr %27, i32 0, i32 2
  %29 = load ptr, ptr %28, align 8
  %30 = getelementptr inbounds nuw %struct.RelationData, ptr %29, i32 0, i32 15
  %31 = load i32, ptr %30, align 8
  %32 = load ptr, ptr %4, align 8
  %33 = getelementptr inbounds nuw %struct.EphemeralNamedRelationData, ptr %32, i32 0, i32 0
  %34 = getelementptr inbounds nuw %struct.EphemeralNamedRelationMetadataData, ptr %33, i32 0, i32 1
  store i32 %31, ptr %34, align 8
  %35 = load ptr, ptr %4, align 8
  %36 = getelementptr inbounds nuw %struct.EphemeralNamedRelationData, ptr %35, i32 0, i32 0
  %37 = getelementptr inbounds nuw %struct.EphemeralNamedRelationMetadataData, ptr %36, i32 0, i32 2
  store ptr null, ptr %37, align 8
  %38 = load ptr, ptr %4, align 8
  %39 = getelementptr inbounds nuw %struct.EphemeralNamedRelationData, ptr %38, i32 0, i32 0
  %40 = getelementptr inbounds nuw %struct.EphemeralNamedRelationMetadataData, ptr %39, i32 0, i32 3
  store i32 0, ptr %40, align 8
  %41 = load ptr, ptr %3, align 8
  %42 = getelementptr inbounds nuw %struct.TriggerData, ptr %41, i32 0, i32 9
  %43 = load ptr, ptr %42, align 8
  %44 = call i64 @tuplestore_tuple_count(ptr noundef %43)
  %45 = sitofp i64 %44 to double
  %46 = load ptr, ptr %4, align 8
  %47 = getelementptr inbounds nuw %struct.EphemeralNamedRelationData, ptr %46, i32 0, i32 0
  %48 = getelementptr inbounds nuw %struct.EphemeralNamedRelationMetadataData, ptr %47, i32 0, i32 4
  store double %45, ptr %48, align 8
  %49 = load ptr, ptr %3, align 8
  %50 = getelementptr inbounds nuw %struct.TriggerData, ptr %49, i32 0, i32 9
  %51 = load ptr, ptr %50, align 8
  %52 = load ptr, ptr %4, align 8
  %53 = getelementptr inbounds nuw %struct.EphemeralNamedRelationData, ptr %52, i32 0, i32 1
  store ptr %51, ptr %53, align 8
  %54 = load ptr, ptr %4, align 8
  %55 = call i32 @SPI_register_relation(ptr noundef %54)
  store i32 %55, ptr %5, align 4
  %56 = load i32, ptr %5, align 4
  %57 = icmp ne i32 %56, 15
  br i1 %57, label %58, label %60

58:                                               ; preds = %17
  %59 = load i32, ptr %5, align 4
  store i32 %59, ptr %2, align 4
  store i32 1, ptr %6, align 4
  br label %61

60:                                               ; preds = %17
  store i32 0, ptr %6, align 4
  br label %61

61:                                               ; preds = %60, %58
  call void @llvm.lifetime.end.p0(i64 4, ptr %5) #9
  call void @llvm.lifetime.end.p0(i64 8, ptr %4) #9
  %62 = load i32, ptr %6, align 4
  switch i32 %62, label %119 [
    i32 0, label %63
    i32 1, label %117
  ]

63:                                               ; preds = %61
  br label %64

64:                                               ; preds = %63, %12
  %65 = load ptr, ptr %3, align 8
  %66 = getelementptr inbounds nuw %struct.TriggerData, ptr %65, i32 0, i32 8
  %67 = load ptr, ptr %66, align 8
  %68 = icmp ne ptr %67, null
  br i1 %68, label %69, label %116

69:                                               ; preds = %64
  call void @llvm.lifetime.start.p0(i64 8, ptr %7) #9
  %70 = call ptr @palloc(i64 noundef 48)
  store ptr %70, ptr %7, align 8
  call void @llvm.lifetime.start.p0(i64 4, ptr %8) #9
  %71 = load ptr, ptr %3, align 8
  %72 = getelementptr inbounds nuw %struct.TriggerData, ptr %71, i32 0, i32 5
  %73 = load ptr, ptr %72, align 8
  %74 = getelementptr inbounds nuw %struct.Trigger, ptr %73, i32 0, i32 17
  %75 = load ptr, ptr %74, align 8
  %76 = load ptr, ptr %7, align 8
  %77 = getelementptr inbounds nuw %struct.EphemeralNamedRelationData, ptr %76, i32 0, i32 0
  %78 = getelementptr inbounds nuw %struct.EphemeralNamedRelationMetadataData, ptr %77, i32 0, i32 0
  store ptr %75, ptr %78, align 8
  %79 = load ptr, ptr %3, align 8
  %80 = getelementptr inbounds nuw %struct.TriggerData, ptr %79, i32 0, i32 2
  %81 = load ptr, ptr %80, align 8
  %82 = getelementptr inbounds nuw %struct.RelationData, ptr %81, i32 0, i32 15
  %83 = load i32, ptr %82, align 8
  %84 = load ptr, ptr %7, align 8
  %85 = getelementptr inbounds nuw %struct.EphemeralNamedRelationData, ptr %84, i32 0, i32 0
  %86 = getelementptr inbounds nuw %struct.EphemeralNamedRelationMetadataData, ptr %85, i32 0, i32 1
  store i32 %83, ptr %86, align 8
  %87 = load ptr, ptr %7, align 8
  %88 = getelementptr inbounds nuw %struct.EphemeralNamedRelationData, ptr %87, i32 0, i32 0
  %89 = getelementptr inbounds nuw %struct.EphemeralNamedRelationMetadataData, ptr %88, i32 0, i32 2
  store ptr null, ptr %89, align 8
  %90 = load ptr, ptr %7, align 8
  %91 = getelementptr inbounds nuw %struct.EphemeralNamedRelationData, ptr %90, i32 0, i32 0
  %92 = getelementptr inbounds nuw %struct.EphemeralNamedRelationMetadataData, ptr %91, i32 0, i32 3
  store i32 0, ptr %92, align 8
  %93 = load ptr, ptr %3, align 8
  %94 = getelementptr inbounds nuw %struct.TriggerData, ptr %93, i32 0, i32 8
  %95 = load ptr, ptr %94, align 8
  %96 = call i64 @tuplestore_tuple_count(ptr noundef %95)
  %97 = sitofp i64 %96 to double
  %98 = load ptr, ptr %7, align 8
  %99 = getelementptr inbounds nuw %struct.EphemeralNamedRelationData, ptr %98, i32 0, i32 0
  %100 = getelementptr inbounds nuw %struct.EphemeralNamedRelationMetadataData, ptr %99, i32 0, i32 4
  store double %97, ptr %100, align 8
  %101 = load ptr, ptr %3, align 8
  %102 = getelementptr inbounds nuw %struct.TriggerData, ptr %101, i32 0, i32 8
  %103 = load ptr, ptr %102, align 8
  %104 = load ptr, ptr %7, align 8
  %105 = getelementptr inbounds nuw %struct.EphemeralNamedRelationData, ptr %104, i32 0, i32 1
  store ptr %103, ptr %105, align 8
  %106 = load ptr, ptr %7, align 8
  %107 = call i32 @SPI_register_relation(ptr noundef %106)
  store i32 %107, ptr %8, align 4
  %108 = load i32, ptr %8, align 4
  %109 = icmp ne i32 %108, 15
  br i1 %109, label %110, label %112

110:                                              ; preds = %69
  %111 = load i32, ptr %8, align 4
  store i32 %111, ptr %2, align 4
  store i32 1, ptr %6, align 4
  br label %113

112:                                              ; preds = %69
  store i32 0, ptr %6, align 4
  br label %113

113:                                              ; preds = %112, %110
  call void @llvm.lifetime.end.p0(i64 4, ptr %8) #9
  call void @llvm.lifetime.end.p0(i64 8, ptr %7) #9
  %114 = load i32, ptr %6, align 4
  switch i32 %114, label %119 [
    i32 0, label %115
    i32 1, label %117
  ]

115:                                              ; preds = %113
  br label %116

116:                                              ; preds = %115, %64
  store i32 17, ptr %2, align 4
  br label %117

117:                                              ; preds = %116, %113, %61, %11
  %118 = load i32, ptr %2, align 4
  ret i32 %118

119:                                              ; preds = %113, %61
  unreachable
}