; Function Attrs: nounwind uwtable
define dso_local range(i32 -12, 18) i32 @SPI_register_trigger_data(ptr noundef readonly captures(address_is_null) %0) local_unnamed_addr #0 {
  %2 = icmp eq ptr %0, null
  br i1 %2, label %SPI_register_relation.exit.thread, label %3

3:                                                ; preds = %1
  %4 = getelementptr inbounds nuw i8, ptr %0, i64 64
  %5 = load ptr, ptr %4, align 8
  %.not = icmp eq ptr %5, null
  br i1 %.not, label %39, label %6

6:                                                ; preds = %3
  %7 = tail call ptr @palloc(i64 noundef 48) #15
  %8 = getelementptr inbounds nuw i8, ptr %0, i64 32
  %9 = load ptr, ptr %8, align 8
  %10 = getelementptr inbounds nuw i8, ptr %9, i64 80
  %11 = load ptr, ptr %10, align 8
  store ptr %11, ptr %7, align 8
  %12 = getelementptr inbounds nuw i8, ptr %0, i64 8
  %13 = load ptr, ptr %12, align 8
  %14 = getelementptr inbounds nuw i8, ptr %13, i64 72
  %15 = load i32, ptr %14, align 8
  %16 = getelementptr inbounds nuw i8, ptr %7, i64 8
  store i32 %15, ptr %16, align 8
  %17 = getelementptr inbounds nuw i8, ptr %7, i64 16
  store ptr null, ptr %17, align 8
  %18 = getelementptr inbounds nuw i8, ptr %7, i64 24
  store i32 0, ptr %18, align 8
  %19 = load ptr, ptr %4, align 8
  %20 = tail call i64 @tuplestore_tuple_count(ptr noundef %19) #15
  %21 = sitofp i64 %20 to double
  %22 = getelementptr inbounds nuw i8, ptr %7, i64 32
  store double %21, ptr %22, align 8
  %23 = load ptr, ptr %4, align 8
  %24 = getelementptr inbounds nuw i8, ptr %7, i64 40
  store ptr %23, ptr %24, align 8
  %25 = load ptr, ptr %7, align 8
  %26 = icmp eq ptr %25, null
  br i1 %26, label %SPI_register_relation.exit.thread, label %27

27:                                               ; preds = %6
  %28 = load ptr, ptr @_SPI_current, align 8
  %.not13.i = icmp eq ptr %28, null
  br i1 %.not13.i, label %SPI_register_relation.exit.thread, label %29

29:                                               ; preds = %27
  %30 = getelementptr inbounds nuw i8, ptr %28, i64 64
  %31 = load ptr, ptr %30, align 8
  %32 = icmp eq ptr %31, null
  br i1 %32, label %_SPI_find_ENR_by_name.exit.thread.thread.i, label %_SPI_find_ENR_by_name.exit.i

_SPI_find_ENR_by_name.exit.i:                     ; preds = %29
  %33 = tail call ptr @get_ENR(ptr noundef nonnull %31, ptr noundef nonnull %25) #15
  %.not.i = icmp eq ptr %33, null
  br i1 %.not.i, label %_SPI_find_ENR_by_name.exit.thread.i, label %SPI_register_relation.exit.thread

_SPI_find_ENR_by_name.exit.thread.i:              ; preds = %_SPI_find_ENR_by_name.exit.i
  %.pre.i = load ptr, ptr @_SPI_current, align 8
  %.phi.trans.insert.i = getelementptr inbounds nuw i8, ptr %.pre.i, i64 64
  %.pre14.i = load ptr, ptr %.phi.trans.insert.i, align 8
  %34 = icmp eq ptr %.pre14.i, null
  br i1 %34, label %_SPI_find_ENR_by_name.exit.thread.thread.i, label %SPI_register_relation.exit

_SPI_find_ENR_by_name.exit.thread.thread.i:       ; preds = %_SPI_find_ENR_by_name.exit.thread.i, %29
  %35 = tail call ptr @create_queryEnv() #15
  %36 = load ptr, ptr @_SPI_current, align 8
  %37 = getelementptr inbounds nuw i8, ptr %36, i64 64
  store ptr %35, ptr %37, align 8
  br label %SPI_register_relation.exit

SPI_register_relation.exit:                       ; preds = %_SPI_find_ENR_by_name.exit.thread.i, %_SPI_find_ENR_by_name.exit.thread.thread.i
  %38 = phi ptr [ %35, %_SPI_find_ENR_by_name.exit.thread.thread.i ], [ %.pre14.i, %_SPI_find_ENR_by_name.exit.thread.i ]
  tail call void @register_ENR(ptr noundef %38, ptr noundef nonnull %7) #15
  br label %39

39:                                               ; preds = %SPI_register_relation.exit, %3
  %40 = getelementptr inbounds nuw i8, ptr %0, i64 56
  %41 = load ptr, ptr %40, align 8
  %.not36 = icmp eq ptr %41, null
  br i1 %.not36, label %SPI_register_relation.exit.thread, label %42

42:                                               ; preds = %39
  %43 = tail call ptr @palloc(i64 noundef 48) #15
  %44 = getelementptr inbounds nuw i8, ptr %0, i64 32
  %45 = load ptr, ptr %44, align 8
  %46 = getelementptr inbounds nuw i8, ptr %45, i64 72
  %47 = load ptr, ptr %46, align 8
  store ptr %47, ptr %43, align 8
  %48 = getelementptr inbounds nuw i8, ptr %0, i64 8
  %49 = load ptr, ptr %48, align 8
  %50 = getelementptr inbounds nuw i8, ptr %49, i64 72
  %51 = load i32, ptr %50, align 8
  %52 = getelementptr inbounds nuw i8, ptr %43, i64 8
  store i32 %51, ptr %52, align 8
  %53 = getelementptr inbounds nuw i8, ptr %43, i64 16
  store ptr null, ptr %53, align 8
  %54 = getelementptr inbounds nuw i8, ptr %43, i64 24
  store i32 0, ptr %54, align 8
  %55 = load ptr, ptr %40, align 8
  %56 = tail call i64 @tuplestore_tuple_count(ptr noundef %55) #15
  %57 = sitofp i64 %56 to double
  %58 = getelementptr inbounds nuw i8, ptr %43, i64 32
  store double %57, ptr %58, align 8
  %59 = load ptr, ptr %40, align 8
  %60 = getelementptr inbounds nuw i8, ptr %43, i64 40
  store ptr %59, ptr %60, align 8
  %61 = load ptr, ptr %43, align 8
  %62 = icmp eq ptr %61, null
  br i1 %62, label %SPI_register_relation.exit.thread, label %63

63:                                               ; preds = %42
  %64 = load ptr, ptr @_SPI_current, align 8
  %.not13.i40 = icmp eq ptr %64, null
  br i1 %.not13.i40, label %SPI_register_relation.exit.thread, label %65

65:                                               ; preds = %63
  %66 = getelementptr inbounds nuw i8, ptr %64, i64 64
  %67 = load ptr, ptr %66, align 8
  %68 = icmp eq ptr %67, null
  br i1 %68, label %_SPI_find_ENR_by_name.exit.thread.thread.i48, label %_SPI_find_ENR_by_name.exit.i41

_SPI_find_ENR_by_name.exit.i41:                   ; preds = %65
  %69 = tail call ptr @get_ENR(ptr noundef nonnull %67, ptr noundef nonnull %61) #15
  %.not.i42 = icmp eq ptr %69, null
  br i1 %.not.i42, label %_SPI_find_ENR_by_name.exit.thread.i44, label %SPI_register_relation.exit.thread

_SPI_find_ENR_by_name.exit.thread.i44:            ; preds = %_SPI_find_ENR_by_name.exit.i41
  %.pre.i45 = load ptr, ptr @_SPI_current, align 8
  %.phi.trans.insert.i46 = getelementptr inbounds nuw i8, ptr %.pre.i45, i64 64
  %.pre14.i47 = load ptr, ptr %.phi.trans.insert.i46, align 8
  %70 = icmp eq ptr %.pre14.i47, null
  br i1 %70, label %_SPI_find_ENR_by_name.exit.thread.thread.i48, label %SPI_register_relation.exit49

_SPI_find_ENR_by_name.exit.thread.thread.i48:     ; preds = %_SPI_find_ENR_by_name.exit.thread.i44, %65
  %71 = tail call ptr @create_queryEnv() #15
  %72 = load ptr, ptr @_SPI_current, align 8
  %73 = getelementptr inbounds nuw i8, ptr %72, i64 64
  store ptr %71, ptr %73, align 8
  br label %SPI_register_relation.exit49

SPI_register_relation.exit49:                     ; preds = %_SPI_find_ENR_by_name.exit.thread.i44, %_SPI_find_ENR_by_name.exit.thread.thread.i48
  %74 = phi ptr [ %71, %_SPI_find_ENR_by_name.exit.thread.thread.i48 ], [ %.pre14.i47, %_SPI_find_ENR_by_name.exit.thread.i44 ]
  tail call void @register_ENR(ptr noundef %74, ptr noundef nonnull %43) #15
  br label %SPI_register_relation.exit.thread

SPI_register_relation.exit.thread:                ; preds = %_SPI_find_ENR_by_name.exit.i41, %63, %42, %_SPI_find_ENR_by_name.exit.i, %27, %6, %39, %SPI_register_relation.exit49, %1
  %.0 = phi i32 [ -6, %1 ], [ 17, %SPI_register_relation.exit49 ], [ 17, %39 ], [ -12, %_SPI_find_ENR_by_name.exit.i ], [ -4, %27 ], [ -6, %6 ], [ -12, %_SPI_find_ENR_by_name.exit.i41 ], [ -4, %63 ], [ -6, %42 ]
  ret i32 %.0
}